target datalayout = "e-m:e-p270:32:32-p271:32:32-p272:64:64-i64:64-i128:128-f80:128-n8:16:32:64-S128"
target triple = "x86_64-pc-linux-gnu"

%"class.llvm::StringRef" = type { ptr, i64 }
%"class.clang::ModuleMap" = type { ptr, ptr, ptr, ptr, ptr, %"class.llvm::SmallVector", %"class.clang::CustomizableOptional", %"class.clang::LangOptions", ptr, %"class.llvm::SmallVector.11", %"class.llvm::StringMap", %"class.llvm::DenseMap", %"class.llvm::SmallVector.16", i32, %"class.llvm::StringMap.21", %"class.llvm::DenseMap.22", %"class.llvm::DenseMap.25", %"class.llvm::DenseMap.25", %"class.llvm::DenseMap.28", i32, [4 x i8], %"class.llvm::DenseMap.31", %"class.llvm::DenseMap.34", %"class.llvm::DenseMap.37", %"class.llvm::DenseMap.40", %"class.llvm::DenseMap.43" }
%"class.llvm::SmallVector" = type { %"class.llvm::SmallVectorImpl", %"struct.llvm::SmallVectorStorage" }
%"class.llvm::SmallVectorImpl" = type { %"class.llvm::SmallVectorTemplateBase" }
%"class.llvm::SmallVectorTemplateBase" = type { %"class.llvm::SmallVectorTemplateCommon" }
%"class.llvm::SmallVectorTemplateCommon" = type { %"class.llvm::SmallVectorBase" }
%"class.llvm::SmallVectorBase" = type { ptr, i32, i32 }
%"struct.llvm::SmallVectorStorage" = type { [8 x i8] }
%"class.clang::CustomizableOptional" = type { %"class.clang::optional_detail::OptionalStorage" }
%"class.clang::optional_detail::OptionalStorage" = type { %"class.clang::FileMgr::MapEntryOptionalStorage" }
%"class.clang::FileMgr::MapEntryOptionalStorage" = type { %"class.clang::DirectoryEntryRef" }
%"class.clang::DirectoryEntryRef" = type { ptr }
%"class.clang::LangOptions" = type <{ %"class.clang::LangOptionsBase.base", [2 x i8], i32, %"struct.clang::SanitizerSet", i8, [7 x i8], %"class.std::vector", %"class.std::vector", %"class.std::vector", %"class.std::vector", %"class.std::vector", %"class.clang::ObjCRuntime", i32, %"class.std::__cxx11::basic_string", %"class.std::__cxx11::basic_string", %"class.std::__cxx11::basic_string", %"class.std::__cxx11::basic_string", %"class.std::vector", %"struct.clang::CommentOptions", %"class.std::vector", %"class.std::map", %"class.std::vector.6", %"class.std::__cxx11::basic_string", %"class.std::__cxx11::basic_string", %"class.std::optional", i8, [3 x i8], i32, i32, [4 x i8], %"class.std::vector", %"class.std::__cxx11::basic_string", i8, i8, [6 x i8], %"class.std::__cxx11::basic_string", i8, [7 x i8] }>
%"class.clang::LangOptionsBase.base" = type <{ i64, i64, i64, i64, i64, i64, i64, i64, i64, i64, i64, i64, i64, i64, i64, i64, i64, i64, i64, i64, i64, i64, i64, i64, i64, i16 }>
%"struct.clang::SanitizerSet" = type { %"class.clang::SanitizerMask" }
%"class.clang::SanitizerMask" = type { [2 x i64] }
%"class.clang::ObjCRuntime" = type <{ i32, %"class.llvm::VersionTuple" }>
%"class.llvm::VersionTuple" = type { i64, i64 }
%"struct.clang::CommentOptions" = type <{ %"class.std::vector", i8, [7 x i8] }>
%"class.std::map" = type { %"class.std::_Rb_tree" }
%"class.std::_Rb_tree" = type { %"struct.std::_Rb_tree<std::__cxx11::basic_string<char>, std::pair<const std::__cxx11::basic_string<char>, std::__cxx11::basic_string<char>>, std::_Select1st<std::pair<const std::__cxx11::basic_string<char>, std::__cxx11::basic_string<char>>>, std::greater<std::__cxx11::basic_string<char>>>::_Rb_tree_impl" }
%"struct.std::_Rb_tree<std::__cxx11::basic_string<char>, std::pair<const std::__cxx11::basic_string<char>, std::__cxx11::basic_string<char>>, std::_Select1st<std::pair<const std::__cxx11::basic_string<char>, std::__cxx11::basic_string<char>>>, std::greater<std::__cxx11::basic_string<char>>>::_Rb_tree_impl" = type { [8 x i8], %"struct.std::_Rb_tree_header" }
%"struct.std::_Rb_tree_header" = type { %"struct.std::_Rb_tree_node_base", i64 }
%"struct.std::_Rb_tree_node_base" = type { i32, ptr, ptr, ptr }
%"class.std::vector.6" = type { %"struct.std::_Vector_base.7" }
%"struct.std::_Vector_base.7" = type { %"struct.std::_Vector_base<llvm::Triple, std::allocator<llvm::Triple>>::_Vector_impl" }
%"struct.std::_Vector_base<llvm::Triple, std::allocator<llvm::Triple>>::_Vector_impl" = type { %"struct.std::_Vector_base<llvm::Triple, std::allocator<llvm::Triple>>::_Vector_impl_data" }
%"struct.std::_Vector_base<llvm::Triple, std::allocator<llvm::Triple>>::_Vector_impl_data" = type { ptr, ptr, ptr }
%"class.std::optional" = type { %"struct.std::_Optional_base" }
%"struct.std::_Optional_base" = type { %"struct.std::_Optional_payload" }
%"struct.std::_Optional_payload" = type { %"struct.std::_Optional_payload_base.base", [3 x i8] }
%"struct.std::_Optional_payload_base.base" = type <{ %"union.std::_Optional_payload_base<clang::TargetCXXABI::Kind>::_Storage", i8 }>
%"union.std::_Optional_payload_base<clang::TargetCXXABI::Kind>::_Storage" = type { i32 }
%"class.std::vector" = type { %"struct.std::_Vector_base" }
%"struct.std::_Vector_base" = type { %"struct.std::_Vector_base<std::__cxx11::basic_string<char>, std::allocator<std::__cxx11::basic_string<char>>>::_Vector_impl" }
%"struct.std::_Vector_base<std::__cxx11::basic_string<char>, std::allocator<std::__cxx11::basic_string<char>>>::_Vector_impl" = type { %"struct.std::_Vector_base<std::__cxx11::basic_string<char>, std::allocator<std::__cxx11::basic_string<char>>>::_Vector_impl_data" }
%"struct.std::_Vector_base<std::__cxx11::basic_string<char>, std::allocator<std::__cxx11::basic_string<char>>>::_Vector_impl_data" = type { ptr, ptr, ptr }
%"class.std::__cxx11::basic_string" = type { %"struct.std::__cxx11::basic_string<char>::_Alloc_hider", i64, %union.anon }
%"struct.std::__cxx11::basic_string<char>::_Alloc_hider" = type { ptr }
%union.anon = type { i64, [8 x i8] }
%"class.llvm::SmallVector.11" = type { %"class.llvm::SmallVectorImpl.12", %"struct.llvm::SmallVectorStorage.15" }
%"class.llvm::SmallVectorImpl.12" = type { %"class.llvm::SmallVectorTemplateBase.13" }
%"class.llvm::SmallVectorTemplateBase.13" = type { %"class.llvm::SmallVectorTemplateCommon.14" }
%"class.llvm::SmallVectorTemplateCommon.14" = type { %"class.llvm::SmallVectorBase" }
%"struct.llvm::SmallVectorStorage.15" = type { [64 x i8] }
%"class.llvm::StringMap" = type { %"class.llvm::StringMapImpl" }
%"class.llvm::StringMapImpl" = type { ptr, i32, i32, i32, i32 }
%"class.llvm::DenseMap" = type <{ ptr, i32, i32, i32, [4 x i8] }>
%"class.llvm::SmallVector.16" = type { %"class.llvm::SmallVectorImpl.17", %"struct.llvm::SmallVectorStorage.20" }
%"class.llvm::SmallVectorImpl.17" = type { %"class.llvm::SmallVectorTemplateBase.18" }
%"class.llvm::SmallVectorTemplateBase.18" = type { %"class.llvm::SmallVectorTemplateCommon.19" }
%"class.llvm::SmallVectorTemplateCommon.19" = type { %"class.llvm::SmallVectorBase" }
%"struct.llvm::SmallVectorStorage.20" = type { [16 x i8] }
%"class.llvm::StringMap.21" = type { %"class.llvm::StringMapImpl" }
%"class.llvm::DenseMap.22" = type <{ ptr, i32, i32, i32, [4 x i8] }>
%"class.llvm::DenseMap.25" = type <{ ptr, i32, i32, i32, [4 x i8] }>
%"class.llvm::DenseMap.28" = type <{ ptr, i32, i32, i32, [4 x i8] }>
%"class.llvm::DenseMap.31" = type <{ ptr, i32, i32, i32, [4 x i8] }>
%"class.llvm::DenseMap.34" = type <{ ptr, i32, i32, i32, [4 x i8] }>
%"class.llvm::DenseMap.37" = type <{ ptr, i32, i32, i32, [4 x i8] }>
%"class.llvm::DenseMap.40" = type <{ ptr, i32, i32, i32, [4 x i8] }>
%"class.llvm::DenseMap.43" = type <{ ptr, i32, i32, i32, [4 x i8] }>
%"class.clang::Module" = type { %"class.std::__cxx11::basic_string", %"class.clang::SourceLocation", i32, ptr, %"class.clang::CustomizableOptional", %"class.std::__cxx11::basic_string", %"class.std::variant", %"struct.clang::ASTFileSignature", %"class.std::__cxx11::basic_string", %"class.std::__cxx11::basic_string", %"class.std::__cxx11::basic_string", %"class.std::__cxx11::basic_string", %"class.std::vector.52", %"class.llvm::StringMap.57", %"class.clang::CustomizableOptional.58", %"class.llvm::SmallSetVector", %"class.std::vector", %"class.llvm::DenseSet.69", i32, [5 x %"class.llvm::SmallVector.74"], %"class.llvm::SmallVector.79", %"class.llvm::SmallVector.79", %"class.llvm::SmallVector.84", ptr, i16, i32, %"class.clang::SourceLocation", %"class.llvm::SmallSetVector.89", %"class.llvm::SmallSetVector.89", %"class.llvm::SmallVector.96", %"class.llvm::SmallVector.101", %"class.llvm::SmallVector.16", %"class.llvm::SmallVector.106", %"class.llvm::SmallSetVector.111", %"class.llvm::SmallVector.118", i8, %"class.std::vector", %"class.std::vector.123", %"class.std::vector.128" }
%"class.std::variant" = type { %"struct.std::__detail::__variant::_Variant_base.base", [7 x i8] }
%"struct.std::__detail::__variant::_Variant_base.base" = type { %"struct.std::__detail::__variant::_Move_assign_base.base" }
%"struct.std::__detail::__variant::_Move_assign_base.base" = type { %"struct.std::__detail::__variant::_Copy_assign_base.base" }
%"struct.std::__detail::__variant::_Copy_assign_base.base" = type { %"struct.std::__detail::__variant::_Move_ctor_base.base" }
%"struct.std::__detail::__variant::_Move_ctor_base.base" = type { %"struct.std::__detail::__variant::_Copy_ctor_base.base" }
%"struct.std::__detail::__variant::_Copy_ctor_base.base" = type { %"struct.std::__detail::__variant::_Variant_storage.base" }
%"struct.std::__detail::__variant::_Variant_storage.base" = type <{ %"union.std::__detail::__variant::_Variadic_union", i8 }>
%"union.std::__detail::__variant::_Variadic_union" = type { %"union.std::__detail::__variant::_Variadic_union.46" }
%"union.std::__detail::__variant::_Variadic_union.46" = type { %"struct.std::__detail::__variant::_Uninitialized.47" }
%"struct.std::__detail::__variant::_Uninitialized.47" = type { %"class.clang::FileEntryRef" }
%"class.clang::FileEntryRef" = type { ptr }
%"struct.clang::ASTFileSignature" = type { %"struct.std::array" }
%"struct.std::array" = type { [20 x i8] }
%"class.std::vector.52" = type { %"struct.std::_Vector_base.53" }
%"struct.std::_Vector_base.53" = type { %"struct.std::_Vector_base<clang::Module *, std::allocator<clang::Module *>>::_Vector_impl" }
%"struct.std::_Vector_base<clang::Module *, std::allocator<clang::Module *>>::_Vector_impl" = type { %"struct.std::_Vector_base<clang::Module *, std::allocator<clang::Module *>>::_Vector_impl_data" }
%"struct.std::_Vector_base<clang::Module *, std::allocator<clang::Module *>>::_Vector_impl_data" = type { ptr, ptr, ptr }
%"class.llvm::StringMap.57" = type { %"class.llvm::StringMapImpl" }
%"class.clang::CustomizableOptional.58" = type { %"class.clang::optional_detail::OptionalStorage.59" }
%"class.clang::optional_detail::OptionalStorage.59" = type { %"class.clang::FileMgr::MapEntryOptionalStorage.60" }
%"class.clang::FileMgr::MapEntryOptionalStorage.60" = type { %"class.clang::FileEntryRef" }
%"class.llvm::SmallSetVector" = type { %"class.llvm::SetVector" }
%"class.llvm::SetVector" = type { %"class.llvm::DenseSet", %"class.llvm::SmallVector.64" }
%"class.llvm::DenseSet" = type { %"class.llvm::detail::DenseSetImpl" }
%"class.llvm::detail::DenseSetImpl" = type { %"class.llvm::DenseMap.61" }
%"class.llvm::DenseMap.61" = type <{ ptr, i32, i32, i32, [4 x i8] }>
%"class.llvm::SmallVector.64" = type { %"class.llvm::SmallVectorImpl.65", %"struct.llvm::SmallVectorStorage.68" }
%"class.llvm::SmallVectorImpl.65" = type { %"class.llvm::SmallVectorTemplateBase.66" }
%"class.llvm::SmallVectorTemplateBase.66" = type { %"class.llvm::SmallVectorTemplateCommon.67" }
%"class.llvm::SmallVectorTemplateCommon.67" = type { %"class.llvm::SmallVectorBase" }
%"struct.llvm::SmallVectorStorage.68" = type { [16 x i8] }
%"class.llvm::DenseSet.69" = type { %"class.llvm::detail::DenseSetImpl.70" }
%"class.llvm::detail::DenseSetImpl.70" = type { %"class.llvm::DenseMap.71" }
%"class.llvm::DenseMap.71" = type <{ ptr, i32, i32, i32, [4 x i8] }>
%"class.llvm::SmallVector.74" = type { %"class.llvm::SmallVectorImpl.75", %"struct.llvm::SmallVectorStorage.78" }
%"class.llvm::SmallVectorImpl.75" = type { %"class.llvm::SmallVectorTemplateBase.76" }
%"class.llvm::SmallVectorTemplateBase.76" = type { %"class.llvm::SmallVectorTemplateCommon.77" }
%"class.llvm::SmallVectorTemplateCommon.77" = type { %"class.llvm::SmallVectorBase" }
%"struct.llvm::SmallVectorStorage.78" = type { [144 x i8] }
%"class.llvm::SmallVector.79" = type { %"class.llvm::SmallVectorImpl.80", %"struct.llvm::SmallVectorStorage.83" }
%"class.llvm::SmallVectorImpl.80" = type { %"class.llvm::SmallVectorTemplateBase.81" }
%"class.llvm::SmallVectorTemplateBase.81" = type { %"class.llvm::SmallVectorTemplateCommon.82" }
%"class.llvm::SmallVectorTemplateCommon.82" = type { %"class.llvm::SmallVectorBase" }
%"struct.llvm::SmallVectorStorage.83" = type { [80 x i8] }
%"class.llvm::SmallVector.84" = type { %"class.llvm::SmallVectorImpl.85", %"struct.llvm::SmallVectorStorage.88" }
%"class.llvm::SmallVectorImpl.85" = type { %"class.llvm::SmallVectorTemplateBase.86" }
%"class.llvm::SmallVectorTemplateBase.86" = type { %"class.llvm::SmallVectorTemplateCommon.87" }
%"class.llvm::SmallVectorTemplateCommon.87" = type { %"class.llvm::SmallVectorBase" }
%"struct.llvm::SmallVectorStorage.88" = type { [80 x i8] }
%"class.clang::SourceLocation" = type { i32 }
%"class.llvm::SmallSetVector.89" = type { %"class.llvm::SetVector.90" }
%"class.llvm::SetVector.90" = type { %"class.llvm::DenseSet.91", %"class.llvm::SmallVector.16" }
%"class.llvm::DenseSet.91" = type { %"class.llvm::detail::DenseSetImpl.92" }
%"class.llvm::detail::DenseSetImpl.92" = type { %"class.llvm::DenseMap.93" }
%"class.llvm::DenseMap.93" = type <{ ptr, i32, i32, i32, [4 x i8] }>
%"class.llvm::SmallVector.96" = type { %"class.llvm::SmallVectorImpl.97", %"struct.llvm::SmallVectorStorage.100" }
%"class.llvm::SmallVectorImpl.97" = type { %"class.llvm::SmallVectorTemplateBase.98" }
%"class.llvm::SmallVectorTemplateBase.98" = type { %"class.llvm::SmallVectorTemplateCommon.99" }
%"class.llvm::SmallVectorTemplateCommon.99" = type { %"class.llvm::SmallVectorBase" }
%"struct.llvm::SmallVectorStorage.100" = type { [16 x i8] }
%"class.llvm::SmallVector.101" = type { %"class.llvm::SmallVectorImpl.102", %"struct.llvm::SmallVectorStorage.105" }
%"class.llvm::SmallVectorImpl.102" = type { %"class.llvm::SmallVectorTemplateBase.103" }
%"class.llvm::SmallVectorTemplateBase.103" = type { %"class.llvm::SmallVectorTemplateCommon.104" }
%"class.llvm::SmallVectorTemplateCommon.104" = type { %"class.llvm::SmallVectorBase" }
%"struct.llvm::SmallVectorStorage.105" = type { [224 x i8] }
%"class.llvm::SmallVector.106" = type { %"class.llvm::SmallVectorImpl.107", %"struct.llvm::SmallVectorStorage.110" }
%"class.llvm::SmallVectorImpl.107" = type { %"class.llvm::SmallVectorTemplateBase.108" }
%"class.llvm::SmallVectorTemplateBase.108" = type { %"class.llvm::SmallVectorTemplateCommon.109" }
%"class.llvm::SmallVectorTemplateCommon.109" = type { %"class.llvm::SmallVectorBase" }
%"struct.llvm::SmallVectorStorage.110" = type { [192 x i8] }
%"class.llvm::SmallSetVector.111" = type { %"class.llvm::SetVector.112" }
%"class.llvm::SetVector.112" = type { %"class.llvm::DenseSet.69", %"class.llvm::SmallVector.113" }
%"class.llvm::SmallVector.113" = type { %"class.llvm::SmallVectorImpl.114", %"struct.llvm::SmallVectorStorage.117" }
%"class.llvm::SmallVectorImpl.114" = type { %"class.llvm::SmallVectorTemplateBase.115" }
%"class.llvm::SmallVectorTemplateBase.115" = type { %"class.llvm::SmallVectorTemplateCommon.116" }
%"class.llvm::SmallVectorTemplateCommon.116" = type { %"class.llvm::SmallVectorBase" }
%"struct.llvm::SmallVectorStorage.117" = type { [16 x i8] }
%"class.llvm::SmallVector.118" = type { %"class.llvm::SmallVectorImpl.119", %"struct.llvm::SmallVectorStorage.122" }
%"class.llvm::SmallVectorImpl.119" = type { %"class.llvm::SmallVectorTemplateBase.120" }
%"class.llvm::SmallVectorTemplateBase.120" = type { %"class.llvm::SmallVectorTemplateCommon.121" }
%"class.llvm::SmallVectorTemplateCommon.121" = type { %"class.llvm::SmallVectorBase" }
%"struct.llvm::SmallVectorStorage.122" = type { [80 x i8] }
%"class.std::vector.123" = type { %"struct.std::_Vector_base.124" }
%"struct.std::_Vector_base.124" = type { %"struct.std::_Vector_base<clang::Module::UnresolvedConflict, std::allocator<clang::Module::UnresolvedConflict>>::_Vector_impl" }
%"struct.std::_Vector_base<clang::Module::UnresolvedConflict, std::allocator<clang::Module::UnresolvedConflict>>::_Vector_impl" = type { %"struct.std::_Vector_base<clang::Module::UnresolvedConflict, std::allocator<clang::Module::UnresolvedConflict>>::_Vector_impl_data" }
%"struct.std::_Vector_base<clang::Module::UnresolvedConflict, std::allocator<clang::Module::UnresolvedConflict>>::_Vector_impl_data" = type { ptr, ptr, ptr }
%"class.std::vector.128" = type { %"struct.std::_Vector_base.129" }
%"struct.std::_Vector_base.129" = type { %"struct.std::_Vector_base<clang::Module::Conflict, std::allocator<clang::Module::Conflict>>::_Vector_impl" }
%"struct.std::_Vector_base<clang::Module::Conflict, std::allocator<clang::Module::Conflict>>::_Vector_impl" = type { %"struct.std::_Vector_base<clang::Module::Conflict, std::allocator<clang::Module::Conflict>>::_Vector_impl_data" }
%"struct.std::_Vector_base<clang::Module::Conflict, std::allocator<clang::Module::Conflict>>::_Vector_impl_data" = type { ptr, ptr, ptr }
%"class.clang::LangOptionsBase" = type <{ i64, i64, i64, i64, i64, i64, i64, i64, i64, i64, i64, i64, i64, i64, i64, i64, i64, i64, i64, i64, i64, i64, i64, i64, i64, i16, [2 x i8] }>

; Function Attrs: mustprogress nounwind uwtable
define linkonce_odr hidden noundef zeroext i1 @_ZNK5clang17DirectoryEntryRef16hasOptionalValueEv(ptr noundef nonnull align 8 dereferenceable(8) %0) #0 comdat align 2 {
  %2 = alloca ptr, align 8
  store ptr %0, ptr %2, align 8
  %3 = load ptr, ptr %2, align 8
  %4 = getelementptr inbounds nuw %"class.clang::DirectoryEntryRef", ptr %3, i32 0, i32 0
  %5 = load ptr, ptr %4, align 8
  %6 = icmp ne ptr %5, null
  ret i1 %6
}

; Function Attrs: mustprogress nounwind uwtable
define linkonce_odr hidden noundef zeroext i1 @_ZNK5clang7FileMgr23MapEntryOptionalStorageINS_17DirectoryEntryRefEE9has_valueEv(ptr noundef nonnull align 8 dereferenceable(8) %0) #0 comdat align 2 {
  %2 = alloca ptr, align 8
  store ptr %0, ptr %2, align 8
  %3 = load ptr, ptr %2, align 8
  %4 = getelementptr inbounds nuw %"class.clang::FileMgr::MapEntryOptionalStorage", ptr %3, i32 0, i32 0
  %5 = call noundef zeroext i1 @_ZNK5clang17DirectoryEntryRef16hasOptionalValueEv(ptr noundef nonnull align 8 dereferenceable(8) %4)
  ret i1 %5
}

; Function Attrs: mustprogress nounwind uwtable
define linkonce_odr hidden noundef zeroext i1 @_ZNK5clang20CustomizableOptionalINS_17DirectoryEntryRefEE9has_valueEv(ptr noundef nonnull align 8 dereferenceable(8) %0) #0 comdat align 2 {
  %2 = alloca ptr, align 8
  store ptr %0, ptr %2, align 8
  %3 = load ptr, ptr %2, align 8
  %4 = getelementptr inbounds nuw %"class.clang::CustomizableOptional", ptr %3, i32 0, i32 0
  %5 = call noundef zeroext i1 @_ZNK5clang7FileMgr23MapEntryOptionalStorageINS_17DirectoryEntryRefEE9has_valueEv(ptr noundef nonnull align 8 dereferenceable(8) %4)
  ret i1 %5
}

; Function Attrs: mustprogress nounwind uwtable
define linkonce_odr hidden noundef zeroext i1 @_ZNK5clang6Module17isPartOfFrameworkEv(ptr noundef nonnull align 8 dereferenceable(2392) %0) #0 comdat align 2 {
  %2 = alloca i1, align 1
  %3 = alloca ptr, align 8
  %4 = alloca ptr, align 8
  store ptr %0, ptr %3, align 8
  %5 = load ptr, ptr %3, align 8
  store ptr %5, ptr %4, align 8
  br label %6

6:                                                ; preds = %19, %1
  %7 = load ptr, ptr %4, align 8
  %8 = icmp ne ptr %7, null
  br i1 %8, label %9, label %23

9:                                                ; preds = %6
  %10 = load ptr, ptr %4, align 8
  %11 = getelementptr inbounds nuw %"class.clang::Module", ptr %10, i32 0, i32 24
  %12 = load i16, ptr %11, align 8
  %13 = lshr i16 %12, 4
  %14 = and i16 %13, 1
  %15 = zext i16 %14 to i32
  %16 = icmp ne i32 %15, 0
  br i1 %16, label %17, label %18

17:                                               ; preds = %9
  store i1 true, ptr %2, align 1
  br label %24

18:                                               ; preds = %9
  br label %19

19:                                               ; preds = %18
  %20 = load ptr, ptr %4, align 8
  %21 = getelementptr inbounds nuw %"class.clang::Module", ptr %20, i32 0, i32 3
  %22 = load ptr, ptr %21, align 8
  store ptr %22, ptr %4, align 8
  br label %6, !llvm.loop !7

23:                                               ; preds = %6
  store i1 false, ptr %2, align 1
  br label %24

24:                                               ; preds = %23, %17
  %25 = load i1, ptr %2, align 1
  ret i1 %25
}

; Function Attrs: mustprogress nounwind uwtable
define linkonce_odr hidden noundef zeroext i1 @_ZNK5clang20CustomizableOptionalINS_17DirectoryEntryRefEEcvbEv(ptr noundef nonnull align 8 dereferenceable(8) %0) #0 comdat align 2 {
  %2 = alloca ptr, align 8
  store ptr %0, ptr %2, align 8
  %3 = load ptr, ptr %2, align 8
  %4 = call noundef zeroext i1 @_ZNK5clang20CustomizableOptionalINS_17DirectoryEntryRefEE9has_valueEv(ptr noundef nonnull align 8 dereferenceable(8) %3)
  ret i1 %4
}

; Function Attrs: mustprogress nounwind uwtable
define dso_local noundef zeroext i1 @_ZNK5clang9ModuleMap39shouldImportRelativeToBuiltinIncludeDirEN4llvm9StringRefEPNS_6ModuleE(ptr noundef nonnull align 8 dereferenceable(1344) %0, ptr %1, i64 %2, ptr noundef %3) #0 align 2 {
  %5 = alloca %"class.llvm::StringRef", align 8
  %6 = alloca ptr, align 8
  %7 = alloca ptr, align 8
  %8 = alloca %"class.llvm::StringRef", align 8
  %9 = getelementptr inbounds nuw { ptr, i64 }, ptr %5, i32 0, i32 0
  store ptr %1, ptr %9, align 8
  %10 = getelementptr inbounds nuw { ptr, i64 }, ptr %5, i32 0, i32 1
  store i64 %2, ptr %10, align 8
  store ptr %0, ptr %6, align 8
  store ptr %3, ptr %7, align 8
  %11 = load ptr, ptr %6, align 8
  %12 = getelementptr inbounds nuw %"class.clang::ModuleMap", ptr %11, i32 0, i32 2
  %13 = load ptr, ptr %12, align 8
  %14 = getelementptr inbounds nuw %"class.clang::LangOptionsBase", ptr %13, i32 0, i32 2
  %15 = load i64, ptr %14, align 8
  %16 = lshr i64 %15, 25
  %17 = and i64 %16, 1
  %18 = trunc i64 %17 to i32
  %19 = icmp ne i32 %18, 0
  br i1 %19, label %20, label %40

20:                                               ; preds = %4
  %21 = getelementptr inbounds nuw %"class.clang::ModuleMap", ptr %11, i32 0, i32 6
  %22 = call noundef zeroext i1 @_ZNK5clang20CustomizableOptionalINS_17DirectoryEntryRefEEcvbEv(ptr noundef nonnull align 8 dereferenceable(8) %21)
  br i1 %22, label %23, label %40

23:                                               ; preds = %20
  %24 = load ptr, ptr %7, align 8
  %25 = getelementptr inbounds nuw %"class.clang::Module", ptr %24, i32 0, i32 24
  %26 = load i16, ptr %25, align 8
  %27 = lshr i16 %26, 6
  %28 = and i16 %27, 1
  %29 = zext i16 %28 to i32
  %30 = icmp ne i32 %29, 0
  br i1 %30, label %31, label %40

31:                                               ; preds = %23
  %32 = load ptr, ptr %7, align 8
  %33 = call noundef zeroext i1 @_ZNK5clang6Module17isPartOfFrameworkEv(ptr noundef nonnull align 8 dereferenceable(2392) %32)
  br i1 %33, label %40, label %34

34:                                               ; preds = %31
  call void @llvm.memcpy.p0.p0.i64(ptr align 8 %8, ptr align 8 %5, i64 16, i1 false)
  %35 = getelementptr inbounds nuw { ptr, i64 }, ptr %8, i32 0, i32 0
  %36 = load ptr, ptr %35, align 8
  %37 = getelementptr inbounds nuw { ptr, i64 }, ptr %8, i32 0, i32 1
  %38 = load i64, ptr %37, align 8
  %39 = call noundef zeroext i1 @_ZL19isBuiltinHeaderNameN4llvm9StringRefE(ptr %36, i64 %38)
  br label %40

40:                                               ; preds = %34, %31, %23, %20, %4
  %41 = phi i1 [ false, %31 ], [ false, %23 ], [ false, %20 ], [ false, %4 ], [ %39, %34 ]
  ret i1 %41
}