; Function Attrs: mustprogress nofree nounwind willreturn memory(read, inaccessiblemem: none) uwtable
define dso_local noundef zeroext i1 @_ZNK5clang9ModuleMap39shouldImportRelativeToBuiltinIncludeDirEN4llvm9StringRefEPNS_6ModuleE(ptr nocapture noundef nonnull readonly align 8 dereferenceable(1344) %0, ptr nocapture readonly %1, i64 %2, ptr nocapture noundef readonly %3) local_unnamed_addr #9 align 2 {
  %5 = getelementptr inbounds nuw i8, ptr %0, i64 16
  %6 = load ptr, ptr %5, align 8
  %7 = getelementptr inbounds nuw i8, ptr %6, i64 16
  %8 = load i64, ptr %7, align 8
  %9 = and i64 %8, 33554432
  %.not = icmp ne i64 %9, 0
  %10 = getelementptr inbounds nuw i8, ptr %0, i64 64
  %11 = load ptr, ptr %10, align 8
  %12 = icmp ne ptr %11, null
  %or.cond = select i1 %.not, i1 %12, i1 false
  br i1 %or.cond, label %13, label %_ZNK5clang6Module17isPartOfFrameworkEv.exit.thread

13:                                               ; preds = %4
  %14 = getelementptr inbounds nuw i8, ptr %3, i64 1520
  %15 = load i16, ptr %14, align 8
  %16 = and i16 %15, 64
  %.not5 = icmp eq i16 %16, 0
  br i1 %.not5, label %_ZNK5clang6Module17isPartOfFrameworkEv.exit.thread, label %.preheader

.preheader:                                       ; preds = %13, %20
  %.07.i = phi ptr [ %22, %20 ], [ %3, %13 ]
  %17 = getelementptr inbounds nuw i8, ptr %.07.i, i64 1520
  %18 = load i16, ptr %17, align 8
  %19 = and i16 %18, 16
  %.not6.not.not.i.not = icmp eq i16 %19, 0
  br i1 %.not6.not.not.i.not, label %20, label %_ZNK5clang6Module17isPartOfFrameworkEv.exit.thread

20:                                               ; preds = %.preheader
  %21 = getelementptr inbounds nuw i8, ptr %.07.i, i64 40
  %22 = load ptr, ptr %21, align 8
  %.not.not.i = icmp eq ptr %22, null
  br i1 %.not.not.i, label %_ZNK5clang6Module17isPartOfFrameworkEv.exit, label %.preheader, !llvm.loop !15

_ZNK5clang6Module17isPartOfFrameworkEv.exit:      ; preds = %20
  %23 = tail call fastcc noundef zeroext i1 @_ZL19isBuiltinHeaderNameN4llvm9StringRefE(ptr %1, i64 %2)
  br label %_ZNK5clang6Module17isPartOfFrameworkEv.exit.thread

_ZNK5clang6Module17isPartOfFrameworkEv.exit.thread: ; preds = %.preheader, %_ZNK5clang6Module17isPartOfFrameworkEv.exit, %13, %4
  %24 = phi i1 [ false, %13 ], [ false, %4 ], [ %23, %_ZNK5clang6Module17isPartOfFrameworkEv.exit ], [ false, %.preheader ]
  ret i1 %24
}